; Function Attrs: mustprogress nounwind uwtable
define hidden noundef ptr @_ZN6hermes6parser7JSLexer25convertSurrogatesInStringEN4llvh9StringRefE(ptr noundef nonnull readonly align 8 captures(none) dereferenceable(1128) %this, ptr %str.coerce0, i64 %str.coerce1) local_unnamed_addr #1 align 2 {
entry:
  %output = alloca %"class.std::__cxx11::basic_string", align 8
  call void @_ZNSt7__cxx1112basic_stringIcSt11char_traitsIcESaIcEEC1Ev(ptr noundef nonnull align 8 dereferenceable(32) %output) #20
  call void @_ZN6hermes47convertUTF8WithSurrogatesToUTF8WithReplacementsERNSt7__cxx1112basic_stringIcSt11char_traitsIcESaIcEEEN4llvh9StringRefE(ptr noundef nonnull align 8 dereferenceable(32) %output, ptr %str.coerce0, i64 %str.coerce1) #20
  %strTab_ = getelementptr inbounds nuw i8, ptr %this, i64 32
  %0 = load ptr, ptr %strTab_, align 8
  %call.i = call noundef ptr @_ZNKSt7__cxx1112basic_stringIcSt11char_traitsIcESaIcEE4dataEv(ptr noundef nonnull align 8 dereferenceable(32) %output) #20
  %call2.i = call noundef i64 @_ZNKSt7__cxx1112basic_stringIcSt11char_traitsIcESaIcEE6lengthEv(ptr noundef nonnull align 8 dereferenceable(32) %output) #20
  %call = call noundef ptr @_ZN6hermes11StringTable9getStringEN4llvh9StringRefE(ptr noundef nonnull align 8 dereferenceable(32) %0, ptr %call.i, i64 %call2.i)
  call void @_ZNSt7__cxx1112basic_stringIcSt11char_traitsIcESaIcEED1Ev(ptr noundef nonnull align 8 dereferenceable(32) %output) #20
  ret ptr %call
}